; Function Attrs: nounwind uwtable
define void @stbiw__write_flush(ptr noundef %0) local_unnamed_addr #5 {
  %2 = getelementptr inbounds nuw i8, ptr %0, i64 80
  %3 = load i32, ptr %2, align 8, !tbaa !14
  %.not = icmp eq i32 %3, 0
  br i1 %.not, label %9, label %4

4:                                                ; preds = %1
  %5 = load ptr, ptr %0, align 8, !tbaa !7
  %6 = getelementptr inbounds nuw i8, ptr %0, i64 8
  %7 = load ptr, ptr %6, align 8, !tbaa !10
  %8 = getelementptr inbounds nuw i8, ptr %0, i64 16
  tail call void %5(ptr noundef %7, ptr noundef nonnull %8, i32 noundef %3) #26
  store i32 0, ptr %2, align 8, !tbaa !14
  br label %9

9:                                                ; preds = %4, %1
  ret void
}